; ModuleID = '31/1613.c'
source_filename = "31/1613.c"
target datalayout = "e-m:e-p270:32:32-p271:32:32-p272:64:64-i64:64-f80:128-n8:16:32:64-S128"
target triple = "x86_64-pc-linux-gnu"

%struct.student = type { [10 x i8], [20 x i8], i8, i32, [10 x i8], [20 x i8], %struct.student* }

@.str = private unnamed_addr constant [18 x i8] c"%s %s %c %d %s %s\00", align 1
@.str.1 = private unnamed_addr constant [3 x i8] c"%s\00", align 1
@.str.2 = private unnamed_addr constant [4 x i8] c"end\00", align 1
@.str.3 = private unnamed_addr constant [15 x i8] c"%s %c %d %s %s\00", align 1
@.str.4 = private unnamed_addr constant [19 x i8] c"%s %s %c %d %s %s\0A\00", align 1

; Function Attrs: noinline nounwind uwtable
define dso_local void @main() #0 {
  %1 = alloca %struct.student*, align 8
  %2 = alloca %struct.student*, align 8
  %3 = alloca %struct.student*, align 8
  %4 = call noalias i8* @malloc(i64 80) #4
  %5 = bitcast i8* %4 to %struct.student*
  store %struct.student* %5, %struct.student** %1, align 8
  %6 = load %struct.student*, %struct.student** %1, align 8
  store %struct.student* %6, %struct.student** %3, align 8
  %7 = load %struct.student*, %struct.student** %1, align 8
  store %struct.student* %7, %struct.student** %2, align 8
  %8 = load %struct.student*, %struct.student** %1, align 8
  %9 = getelementptr inbounds %struct.student, %struct.student* %8, i32 0, i32 6
  store %struct.student* null, %struct.student** %9, align 8
  %10 = load %struct.student*, %struct.student** %1, align 8
  %11 = getelementptr inbounds %struct.student, %struct.student* %10, i32 0, i32 0
  %12 = getelementptr inbounds [10 x i8], [10 x i8]* %11, i64 0, i64 0
  %13 = load %struct.student*, %struct.student** %1, align 8
  %14 = getelementptr inbounds %struct.student, %struct.student* %13, i32 0, i32 1
  %15 = getelementptr inbounds [20 x i8], [20 x i8]* %14, i64 0, i64 0
  %16 = load %struct.student*, %struct.student** %1, align 8
  %17 = getelementptr inbounds %struct.student, %struct.student* %16, i32 0, i32 2
  %18 = load %struct.student*, %struct.student** %1, align 8
  %19 = getelementptr inbounds %struct.student, %struct.student* %18, i32 0, i32 3
  %20 = load %struct.student*, %struct.student** %1, align 8
  %21 = getelementptr inbounds %struct.student, %struct.student* %20, i32 0, i32 4
  %22 = getelementptr inbounds [10 x i8], [10 x i8]* %21, i64 0, i64 0
  %23 = load %struct.student*, %struct.student** %1, align 8
  %24 = getelementptr inbounds %struct.student, %struct.student* %23, i32 0, i32 5
  %25 = getelementptr inbounds [20 x i8], [20 x i8]* %24, i64 0, i64 0
  %26 = call i32 (i8*, ...) @__isoc99_scanf(i8* getelementptr inbounds ([18 x i8], [18 x i8]* @.str, i64 0, i64 0), i8* %12, i8* %15, i8* %17, i32* %19, i8* %22, i8* %25)
  br label %27

27:                                               ; preds = %57, %0
  br i1 true, label %28, label %62

28:                                               ; preds = %27
  %29 = call noalias i8* @malloc(i64 80) #4
  %30 = bitcast i8* %29 to %struct.student*
  store %struct.student* %30, %struct.student** %1, align 8
  %31 = load %struct.student*, %struct.student** %1, align 8
  %32 = getelementptr inbounds %struct.student, %struct.student* %31, i32 0, i32 0
  %33 = getelementptr inbounds [10 x i8], [10 x i8]* %32, i64 0, i64 0
  %34 = call i32 (i8*, ...) @__isoc99_scanf(i8* getelementptr inbounds ([3 x i8], [3 x i8]* @.str.1, i64 0, i64 0), i8* %33)
  %35 = load %struct.student*, %struct.student** %1, align 8
  %36 = getelementptr inbounds %struct.student, %struct.student* %35, i32 0, i32 0
  %37 = getelementptr inbounds [10 x i8], [10 x i8]* %36, i64 0, i64 0
  %38 = call i32 @strcmp(i8* %37, i8* getelementptr inbounds ([4 x i8], [4 x i8]* @.str.2, i64 0, i64 0)) #5
  %39 = icmp eq i32 %38, 0
  br i1 %39, label %40, label %42

40:                                               ; preds = %28
  %41 = load %struct.student*, %struct.student** %2, align 8
  store %struct.student* %41, %struct.student** %3, align 8
  br label %62

42:                                               ; preds = %28
  %43 = load %struct.student*, %struct.student** %1, align 8
  %44 = getelementptr inbounds %struct.student, %struct.student* %43, i32 0, i32 1
  %45 = getelementptr inbounds [20 x i8], [20 x i8]* %44, i64 0, i64 0
  %46 = load %struct.student*, %struct.student** %1, align 8
  %47 = getelementptr inbounds %struct.student, %struct.student* %46, i32 0, i32 2
  %48 = load %struct.student*, %struct.student** %1, align 8
  %49 = getelementptr inbounds %struct.student, %struct.student* %48, i32 0, i32 3
  %50 = load %struct.student*, %struct.student** %1, align 8
  %51 = getelementptr inbounds %struct.student, %struct.student* %50, i32 0, i32 4
  %52 = getelementptr inbounds [10 x i8], [10 x i8]* %51, i64 0, i64 0
  %53 = load %struct.student*, %struct.student** %1, align 8
  %54 = getelementptr inbounds %struct.student, %struct.student* %53, i32 0, i32 5
  %55 = getelementptr inbounds [20 x i8], [20 x i8]* %54, i64 0, i64 0
  %56 = call i32 (i8*, ...) @__isoc99_scanf(i8* getelementptr inbounds ([15 x i8], [15 x i8]* @.str.3, i64 0, i64 0), i8* %45, i8* %47, i32* %49, i8* %52, i8* %55)
  br label %57

57:                                               ; preds = %42
  %58 = load %struct.student*, %struct.student** %2, align 8
  %59 = load %struct.student*, %struct.student** %1, align 8
  %60 = getelementptr inbounds %struct.student, %struct.student* %59, i32 0, i32 6
  store %struct.student* %58, %struct.student** %60, align 8
  %61 = load %struct.student*, %struct.student** %1, align 8
  store %struct.student* %61, %struct.student** %2, align 8
  br label %27

62:                                               ; preds = %40, %27
  %63 = load %struct.student*, %struct.student** %3, align 8
  store %struct.student* %63, %struct.student** %1, align 8
  br label %64

64:                                               ; preds = %67, %62
  %65 = load %struct.student*, %struct.student** %1, align 8
  %66 = icmp ne %struct.student* %65, null
  br i1 %66, label %67, label %91

67:                                               ; preds = %64
  %68 = load %struct.student*, %struct.student** %1, align 8
  %69 = getelementptr inbounds %struct.student, %struct.student* %68, i32 0, i32 0
  %70 = getelementptr inbounds [10 x i8], [10 x i8]* %69, i64 0, i64 0
  %71 = load %struct.student*, %struct.student** %1, align 8
  %72 = getelementptr inbounds %struct.student, %struct.student* %71, i32 0, i32 1
  %73 = getelementptr inbounds [20 x i8], [20 x i8]* %72, i64 0, i64 0
  %74 = load %struct.student*, %struct.student** %1, align 8
  %75 = getelementptr inbounds %struct.student, %struct.student* %74, i32 0, i32 2
  %76 = load i8, i8* %75, align 2
  %77 = sext i8 %76 to i32
  %78 = load %struct.student*, %struct.student** %1, align 8
  %79 = getelementptr inbounds %struct.student, %struct.student* %78, i32 0, i32 3
  %80 = load i32, i32* %79, align 8
  %81 = load %struct.student*, %struct.student** %1, align 8
  %82 = getelementptr inbounds %struct.student, %struct.student* %81, i32 0, i32 4
  %83 = getelementptr inbounds [10 x i8], [10 x i8]* %82, i64 0, i64 0
  %84 = load %struct.student*, %struct.student** %1, align 8
  %85 = getelementptr inbounds %struct.student, %struct.student* %84, i32 0, i32 5
  %86 = getelementptr inbounds [20 x i8], [20 x i8]* %85, i64 0, i64 0
  %87 = call i32 (i8*, ...) @printf(i8* getelementptr inbounds ([19 x i8], [19 x i8]* @.str.4, i64 0, i64 0), i8* %70, i8* %73, i32 %77, i32 %80, i8* %83, i8* %86)
  %88 = load %struct.student*, %struct.student** %1, align 8
  %89 = getelementptr inbounds %struct.student, %struct.student* %88, i32 0, i32 6
  %90 = load %struct.student*, %struct.student** %89, align 8
  store %struct.student* %90, %struct.student** %1, align 8
  br label %64

91:                                               ; preds = %64
  ret void
}

; Function Attrs: nounwind
declare dso_local noalias i8* @malloc(i64) #1

declare dso_local i32 @__isoc99_scanf(i8*, ...) #2

; Function Attrs: nounwind readonly
declare dso_local i32 @strcmp(i8*, i8*) #3

declare dso_local i32 @printf(i8*, ...) #2


!llvm.module.flags = !{!0}
!llvm.ident = !{!1}

!0 = !{i32 1, !"wchar_size", i32 4}
!1 = !{!"clang version 10.0.0-4ubuntu1 "}
